; Function Attrs: mustprogress uwtable
define noundef signext range(i8 0, 2) i8 @_ZNK6icu_7717RuleBasedTimeZone15useDaylightTimeEv(ptr noundef nonnull align 8 dereferenceable(105) %0) unnamed_addr #1 align 2 {
  %2 = alloca i32, align 4
  %3 = alloca i32, align 4
  %4 = alloca i32, align 4
  %5 = alloca double, align 8
  %6 = alloca ptr, align 8
  %7 = alloca ptr, align 8
  call void @llvm.lifetime.start.p0(i64 4, ptr nonnull %2) #14
  store i32 0, ptr %2, align 4, !tbaa !21
  %8 = tail call double @uprv_getUTCtime_77()
  call void @llvm.lifetime.start.p0(i64 4, ptr nonnull %3) #14
  call void @llvm.lifetime.start.p0(i64 4, ptr nonnull %4) #14
  %9 = load ptr, ptr %0, align 8, !tbaa !3
  %10 = getelementptr inbounds nuw i8, ptr %9, i64 48
  %11 = load ptr, ptr %10, align 8
  call void %11(ptr noundef nonnull align 8 dereferenceable(105) %0, double noundef %8, i8 noundef signext 0, ptr noundef nonnull align 4 dereferenceable(4) %3, ptr noundef nonnull align 4 dereferenceable(4) %4, ptr noundef nonnull align 4 dereferenceable(4) %2)
  %12 = load i32, ptr %4, align 4, !tbaa !48
  %.not = icmp eq i32 %12, 0
  br i1 %.not, label %13, label %20

13:                                               ; preds = %1
  call void @llvm.lifetime.start.p0(i64 8, ptr nonnull %5) #14
  call void @llvm.lifetime.start.p0(i64 8, ptr nonnull %6) #14
  call void @llvm.lifetime.start.p0(i64 8, ptr nonnull %7) #14
  %14 = call noundef signext i8 @_ZNK6icu_7717RuleBasedTimeZone8findNextEdaRdRPNS_12TimeZoneRuleES4_(ptr noundef nonnull align 8 dereferenceable(105) %0, double noundef %8, i8 noundef signext 0, ptr noundef nonnull align 8 dereferenceable(8) %5, ptr noundef nonnull align 8 dereferenceable(8) %6, ptr noundef nonnull align 8 dereferenceable(8) %7)
  %.not4 = icmp eq i8 %14, 0
  br i1 %.not4, label %18, label %15

15:                                               ; preds = %13
  %16 = load ptr, ptr %7, align 8, !tbaa !51
  %17 = call noundef i32 @_ZNK6icu_7712TimeZoneRule13getDSTSavingsEv(ptr noundef nonnull align 8 dereferenceable(80) %16)
  %.not5 = icmp eq i32 %17, 0
  br i1 %.not5, label %18, label %19

18:                                               ; preds = %15, %13
  br label %19

19:                                               ; preds = %15, %18
  %.1 = phi i8 [ 0, %18 ], [ 1, %15 ]
  call void @llvm.lifetime.end.p0(i64 8, ptr nonnull %7) #14
  call void @llvm.lifetime.end.p0(i64 8, ptr nonnull %6) #14
  call void @llvm.lifetime.end.p0(i64 8, ptr nonnull %5) #14
  br label %20

20:                                               ; preds = %1, %19
  %.0 = phi i8 [ %.1, %19 ], [ 1, %1 ]
  call void @llvm.lifetime.end.p0(i64 4, ptr nonnull %4) #14
  call void @llvm.lifetime.end.p0(i64 4, ptr nonnull %3) #14
  call void @llvm.lifetime.end.p0(i64 4, ptr nonnull %2) #14
  ret i8 %.0
}